target datalayout = "e-m:e-p270:32:32-p271:32:32-p272:64:64-i64:64-i128:128-f80:128-n8:16:32:64-S128"
target triple = "x86_64-pc-linux-gnu"

%"class.absl::synchronization_internal::GraphCycles" = type { ptr }
%"struct.absl::synchronization_internal::GraphCycles::Rep" = type { %"class.absl::synchronization_internal::(anonymous namespace)::Vec", %"class.absl::synchronization_internal::(anonymous namespace)::Vec.0", %"class.absl::synchronization_internal::(anonymous namespace)::PointerMap", %"class.absl::synchronization_internal::(anonymous namespace)::Vec.0", %"class.absl::synchronization_internal::(anonymous namespace)::Vec.0", %"class.absl::synchronization_internal::(anonymous namespace)::Vec.0", %"class.absl::synchronization_internal::(anonymous namespace)::Vec.0", %"class.absl::synchronization_internal::(anonymous namespace)::Vec.0" }
%"class.absl::synchronization_internal::(anonymous namespace)::Vec" = type { ptr, [8 x ptr], i32, i32 }
%"class.absl::synchronization_internal::(anonymous namespace)::PointerMap" = type <{ ptr, %"struct.std::array", [4 x i8] }>
%"struct.std::array" = type { [262139 x i32] }
%"class.absl::synchronization_internal::(anonymous namespace)::Vec.0" = type { ptr, [8 x i32], i32, i32 }
%"struct.absl::synchronization_internal::(anonymous namespace)::Node" = type { i32, i32, i32, i8, i64, %"class.absl::synchronization_internal::(anonymous namespace)::NodeSet", %"class.absl::synchronization_internal::(anonymous namespace)::NodeSet", i32, i32, [40 x ptr] }
%"class.absl::synchronization_internal::(anonymous namespace)::NodeSet" = type <{ %"class.absl::synchronization_internal::(anonymous namespace)::Vec.0", i32, [4 x i8] }>
%"struct.absl::synchronization_internal::GraphId" = type { i64 }

; Function Attrs: mustprogress nounwind uwtable
define linkonce_odr dso_local noundef i64 @_ZN4absl13base_internal8HideMaskEv() #2 comdat {
  ret i64 -1136490970041655429
}

; Function Attrs: inlinehint mustprogress nounwind uwtable
define internal noundef i32 @_ZN4absl24synchronization_internal12_GLOBAL__N_111NodeVersionENS0_7GraphIdE(i64 %0) #5 {
  %2 = alloca %"struct.absl::synchronization_internal::GraphId", align 8
  %3 = getelementptr inbounds nuw %"struct.absl::synchronization_internal::GraphId", ptr %2, i32 0, i32 0
  store i64 %0, ptr %3, align 8
  %4 = getelementptr inbounds nuw %"struct.absl::synchronization_internal::GraphId", ptr %2, i32 0, i32 0
  %5 = load i64, ptr %4, align 8, !tbaa !61
  %6 = lshr i64 %5, 32
  %7 = trunc i64 %6 to i32
  ret i32 %7
}

; Function Attrs: mustprogress nounwind uwtable
define internal noundef nonnull align 8 dereferenceable(8) ptr @_ZN4absl24synchronization_internal12_GLOBAL__N_13VecIPNS1_4NodeEEixEj(ptr noundef nonnull align 8 dereferenceable(80) %0, i32 noundef %1) #2 align 2 {
  %3 = alloca ptr, align 8
  %4 = alloca i32, align 4
  store ptr %0, ptr %3, align 8, !tbaa !18
  store i32 %1, ptr %4, align 4, !tbaa !9
  %5 = load ptr, ptr %3, align 8
  %6 = getelementptr inbounds nuw %"class.absl::synchronization_internal::(anonymous namespace)::Vec", ptr %5, i32 0, i32 0
  %7 = load ptr, ptr %6, align 8, !tbaa !24
  %8 = load i32, ptr %4, align 4, !tbaa !9
  %9 = zext i32 %8 to i64
  %10 = getelementptr inbounds nuw ptr, ptr %7, i64 %9
  ret ptr %10
}

; Function Attrs: inlinehint mustprogress nounwind uwtable
define internal noundef i32 @_ZN4absl24synchronization_internal12_GLOBAL__N_19NodeIndexENS0_7GraphIdE(i64 %0) #5 {
  %2 = alloca %"struct.absl::synchronization_internal::GraphId", align 8
  %3 = getelementptr inbounds nuw %"struct.absl::synchronization_internal::GraphId", ptr %2, i32 0, i32 0
  store i64 %0, ptr %3, align 8
  %4 = getelementptr inbounds nuw %"struct.absl::synchronization_internal::GraphId", ptr %2, i32 0, i32 0
  %5 = load i64, ptr %4, align 8, !tbaa !61
  %6 = trunc i64 %5 to i32
  ret i32 %6
}

; Function Attrs: inlinehint mustprogress nounwind uwtable
define linkonce_odr dso_local noundef ptr @_ZN4absl13base_internal9UnhidePtrIvEEPT_m(i64 noundef %0) #5 comdat {
  %2 = alloca i64, align 8
  store i64 %0, ptr %2, align 8, !tbaa !47
  %3 = load i64, ptr %2, align 8, !tbaa !47
  %4 = call noundef i64 @_ZN4absl13base_internal8HideMaskEv()
  %5 = xor i64 %3, %4
  %6 = inttoptr i64 %5 to ptr
  ret ptr %6
}

; Function Attrs: mustprogress uwtable
define internal noundef ptr @_ZN4absl24synchronization_internalL8FindNodeEPNS0_11GraphCycles3RepENS0_7GraphIdE(ptr noundef %0, i64 %1) #0 {
  %3 = alloca %"struct.absl::synchronization_internal::GraphId", align 8
  %4 = alloca ptr, align 8
  %5 = alloca ptr, align 8
  %6 = alloca %"struct.absl::synchronization_internal::GraphId", align 8
  %7 = alloca %"struct.absl::synchronization_internal::GraphId", align 8
  %8 = getelementptr inbounds nuw %"struct.absl::synchronization_internal::GraphId", ptr %3, i32 0, i32 0
  store i64 %1, ptr %8, align 8
  store ptr %0, ptr %4, align 8, !tbaa !27
  call void @llvm.lifetime.start.p0(i64 8, ptr %5) #12
  %9 = load ptr, ptr %4, align 8, !tbaa !27
  %10 = getelementptr inbounds nuw %"struct.absl::synchronization_internal::GraphCycles::Rep", ptr %9, i32 0, i32 0
  call void @llvm.memcpy.p0.p0.i64(ptr align 8 %6, ptr align 8 %3, i64 8, i1 false), !tbaa.struct !71
  %11 = getelementptr inbounds nuw %"struct.absl::synchronization_internal::GraphId", ptr %6, i32 0, i32 0
  %12 = load i64, ptr %11, align 8
  %13 = call noundef i32 @_ZN4absl24synchronization_internal12_GLOBAL__N_19NodeIndexENS0_7GraphIdE(i64 %12)
  %14 = call noundef nonnull align 8 dereferenceable(8) ptr @_ZN4absl24synchronization_internal12_GLOBAL__N_13VecIPNS1_4NodeEEixEj(ptr noundef nonnull align 8 dereferenceable(80) %10, i32 noundef %13)
  %15 = load ptr, ptr %14, align 8, !tbaa !14
  store ptr %15, ptr %5, align 8, !tbaa !14
  %16 = load ptr, ptr %5, align 8, !tbaa !14
  %17 = getelementptr inbounds nuw %"struct.absl::synchronization_internal::(anonymous namespace)::Node", ptr %16, i32 0, i32 1
  %18 = load i32, ptr %17, align 4, !tbaa !58
  call void @llvm.memcpy.p0.p0.i64(ptr align 8 %7, ptr align 8 %3, i64 8, i1 false), !tbaa.struct !71
  %19 = getelementptr inbounds nuw %"struct.absl::synchronization_internal::GraphId", ptr %7, i32 0, i32 0
  %20 = load i64, ptr %19, align 8
  %21 = call noundef i32 @_ZN4absl24synchronization_internal12_GLOBAL__N_111NodeVersionENS0_7GraphIdE(i64 %20)
  %22 = icmp eq i32 %18, %21
  br i1 %22, label %23, label %25

23:                                               ; preds = %2
  %24 = load ptr, ptr %5, align 8, !tbaa !14
  br label %26

25:                                               ; preds = %2
  br label %26

26:                                               ; preds = %25, %23
  %27 = phi ptr [ %24, %23 ], [ null, %25 ]
  call void @llvm.lifetime.end.p0(i64 8, ptr %5) #12
  ret ptr %27
}

; Function Attrs: mustprogress uwtable
define dso_local noundef ptr @_ZN4absl24synchronization_internal11GraphCycles3PtrENS0_7GraphIdE(ptr noundef nonnull align 8 dereferenceable(8) %0, i64 %1) #0 align 2 {
  %3 = alloca %"struct.absl::synchronization_internal::GraphId", align 8
  %4 = alloca ptr, align 8
  %5 = alloca ptr, align 8
  %6 = alloca %"struct.absl::synchronization_internal::GraphId", align 8
  %7 = getelementptr inbounds nuw %"struct.absl::synchronization_internal::GraphId", ptr %3, i32 0, i32 0
  store i64 %1, ptr %7, align 8
  store ptr %0, ptr %4, align 8, !tbaa !4
  %8 = load ptr, ptr %4, align 8
  call void @llvm.lifetime.start.p0(i64 8, ptr %5) #12
  %9 = getelementptr inbounds nuw %"class.absl::synchronization_internal::GraphCycles", ptr %8, i32 0, i32 0
  %10 = load ptr, ptr %9, align 8, !tbaa !11
  call void @llvm.memcpy.p0.p0.i64(ptr align 8 %6, ptr align 8 %3, i64 8, i1 false), !tbaa.struct !71
  %11 = getelementptr inbounds nuw %"struct.absl::synchronization_internal::GraphId", ptr %6, i32 0, i32 0
  %12 = load i64, ptr %11, align 8
  %13 = call noundef ptr @_ZN4absl24synchronization_internalL8FindNodeEPNS0_11GraphCycles3RepENS0_7GraphIdE(ptr noundef %10, i64 %12)
  store ptr %13, ptr %5, align 8, !tbaa !14
  %14 = load ptr, ptr %5, align 8, !tbaa !14
  %15 = icmp eq ptr %14, null
  br i1 %15, label %16, label %17

16:                                               ; preds = %2
  br label %22

17:                                               ; preds = %2
  %18 = load ptr, ptr %5, align 8, !tbaa !14
  %19 = getelementptr inbounds nuw %"struct.absl::synchronization_internal::(anonymous namespace)::Node", ptr %18, i32 0, i32 4
  %20 = load i64, ptr %19, align 8, !tbaa !29
  %21 = call noundef ptr @_ZN4absl13base_internal9UnhidePtrIvEEPT_m(i64 noundef %20)
  br label %22

22:                                               ; preds = %17, %16
  %23 = phi ptr [ null, %16 ], [ %21, %17 ]
  call void @llvm.lifetime.end.p0(i64 8, ptr %5) #12
  ret ptr %23
}